; Function Attrs: nounwind uwtable
define range(i32 -1, 1) i32 @H5VL_inc_vol_wrapper(ptr noundef %0) local_unnamed_addr #0 {
  %2 = icmp eq ptr %0, null
  br i1 %2, label %3, label %7

3:                                                ; preds = %1
  %4 = load i64, ptr @H5E_VOL_g, align 8
  %5 = load i64, ptr @H5E_BADVALUE_g, align 8
  %6 = tail call i32 (ptr, ptr, i32, i64, i64, ptr, ...) @H5E_printf_stack(ptr noundef nonnull @.str.2, ptr noundef nonnull @__func__.H5VL_inc_vol_wrapper, i32 noundef 2286, i64 noundef %4, i64 noundef %5, ptr noundef nonnull @.str.87) #10
  br label %16

7:                                                ; preds = %1
  %8 = load i32, ptr %0, align 8
  %9 = icmp eq i32 %8, 0
  br i1 %9, label %10, label %14

10:                                               ; preds = %7
  %11 = load i64, ptr @H5E_VOL_g, align 8
  %12 = load i64, ptr @H5E_BADVALUE_g, align 8
  %13 = tail call i32 (ptr, ptr, i32, i64, i64, ptr, ...) @H5E_printf_stack(ptr noundef nonnull @.str.2, ptr noundef nonnull @__func__.H5VL_inc_vol_wrapper, i32 noundef 2288, i64 noundef %11, i64 noundef %12, ptr noundef nonnull @.str.88) #10
  br label %16

14:                                               ; preds = %7
  %15 = add i32 %8, 1
  store i32 %15, ptr %0, align 8
  br label %16

16:                                               ; preds = %14, %10, %3
  %.0 = phi i32 [ -1, %3 ], [ -1, %10 ], [ 0, %14 ]
  ret i32 %.0
}